target datalayout = "e-m:e-p270:32:32-p271:32:32-p272:64:64-i64:64-i128:128-f80:128-n8:16:32:64-S128"
target triple = "x86_64-pc-linux-gnu"

%struct.CBraState = type { i64, i64, i64, i32, i32, i32, i32, i32, [256 x i8], [16384 x i8] }

; Function Attrs: nounwind uwtable
define internal i32 @BraState_Code(ptr noundef %0, ptr noundef %1, ptr noundef %2, ptr noundef %3, ptr noundef %4, i32 noundef %5, i32 noundef %6, ptr noundef %7) #0 {
  %9 = alloca i32, align 4
  %10 = alloca ptr, align 8
  %11 = alloca ptr, align 8
  %12 = alloca ptr, align 8
  %13 = alloca ptr, align 8
  %14 = alloca ptr, align 8
  %15 = alloca i32, align 4
  %16 = alloca i32, align 4
  %17 = alloca ptr, align 8
  %18 = alloca ptr, align 8
  %19 = alloca i64, align 8
  %20 = alloca i64, align 8
  %21 = alloca i64, align 8
  %22 = alloca i64, align 8
  store ptr %0, ptr %10, align 8
  store ptr %1, ptr %11, align 8
  store ptr %2, ptr %12, align 8
  store ptr %3, ptr %13, align 8
  store ptr %4, ptr %14, align 8
  store i32 %5, ptr %15, align 4
  store i32 %6, ptr %16, align 4
  store ptr %7, ptr %17, align 8
  %23 = load ptr, ptr %10, align 8
  store ptr %23, ptr %18, align 8
  %24 = load ptr, ptr %12, align 8
  %25 = load i64, ptr %24, align 8
  store i64 %25, ptr %19, align 8
  %26 = load ptr, ptr %14, align 8
  %27 = load i64, ptr %26, align 8
  store i64 %27, ptr %20, align 8
  %28 = load ptr, ptr %12, align 8
  store i64 0, ptr %28, align 8
  %29 = load ptr, ptr %14, align 8
  store i64 0, ptr %29, align 8
  %30 = load ptr, ptr %17, align 8
  store i32 0, ptr %30, align 4
  br label %31

31:                                               ; preds = %307, %55, %8
  %32 = load i64, ptr %19, align 8
  %33 = icmp ugt i64 %32, 0
  br i1 %33, label %34, label %308

34:                                               ; preds = %31
  %35 = load ptr, ptr %18, align 8
  %36 = getelementptr inbounds %struct.CBraState, ptr %35, i32 0, i32 0
  %37 = load i64, ptr %36, align 8
  %38 = load ptr, ptr %18, align 8
  %39 = getelementptr inbounds %struct.CBraState, ptr %38, i32 0, i32 1
  %40 = load i64, ptr %39, align 8
  %41 = icmp ne i64 %37, %40
  br i1 %41, label %42, label %80

42:                                               ; preds = %34
  %43 = load ptr, ptr %18, align 8
  %44 = getelementptr inbounds %struct.CBraState, ptr %43, i32 0, i32 1
  %45 = load i64, ptr %44, align 8
  %46 = load ptr, ptr %18, align 8
  %47 = getelementptr inbounds %struct.CBraState, ptr %46, i32 0, i32 0
  %48 = load i64, ptr %47, align 8
  %49 = sub i64 %45, %48
  store i64 %49, ptr %21, align 8
  %50 = load i64, ptr %21, align 8
  %51 = load i64, ptr %19, align 8
  %52 = icmp ugt i64 %50, %51
  br i1 %52, label %53, label %55

53:                                               ; preds = %42
  %54 = load i64, ptr %19, align 8
  store i64 %54, ptr %21, align 8
  br label %55

55:                                               ; preds = %53, %42
  %56 = load ptr, ptr %11, align 8
  %57 = load ptr, ptr %18, align 8
  %58 = getelementptr inbounds %struct.CBraState, ptr %57, i32 0, i32 9
  %59 = getelementptr inbounds [16384 x i8], ptr %58, i64 0, i64 0
  %60 = load ptr, ptr %18, align 8
  %61 = getelementptr inbounds %struct.CBraState, ptr %60, i32 0, i32 0
  %62 = load i64, ptr %61, align 8
  %63 = getelementptr inbounds i8, ptr %59, i64 %62
  %64 = load i64, ptr %21, align 8
  call void @llvm.memcpy.p0.p0.i64(ptr align 1 %56, ptr align 1 %63, i64 %64, i1 false)
  %65 = load i64, ptr %21, align 8
  %66 = load ptr, ptr %18, align 8
  %67 = getelementptr inbounds %struct.CBraState, ptr %66, i32 0, i32 0
  %68 = load i64, ptr %67, align 8
  %69 = add i64 %68, %65
  store i64 %69, ptr %67, align 8
  %70 = load i64, ptr %21, align 8
  %71 = load ptr, ptr %12, align 8
  %72 = load i64, ptr %71, align 8
  %73 = add i64 %72, %70
  store i64 %73, ptr %71, align 8
  %74 = load i64, ptr %21, align 8
  %75 = load ptr, ptr %11, align 8
  %76 = getelementptr inbounds i8, ptr %75, i64 %74
  store ptr %76, ptr %11, align 8
  %77 = load i64, ptr %21, align 8
  %78 = load i64, ptr %19, align 8
  %79 = sub i64 %78, %77
  store i64 %79, ptr %19, align 8
  br label %31

80:                                               ; preds = %34
  %81 = load ptr, ptr %18, align 8
  %82 = getelementptr inbounds %struct.CBraState, ptr %81, i32 0, i32 0
  %83 = load i64, ptr %82, align 8
  %84 = load ptr, ptr %18, align 8
  %85 = getelementptr inbounds %struct.CBraState, ptr %84, i32 0, i32 2
  %86 = load i64, ptr %85, align 8
  %87 = sub i64 %86, %83
  store i64 %87, ptr %85, align 8
  %88 = load ptr, ptr %18, align 8
  %89 = getelementptr inbounds %struct.CBraState, ptr %88, i32 0, i32 9
  %90 = getelementptr inbounds [16384 x i8], ptr %89, i64 0, i64 0
  %91 = load ptr, ptr %18, align 8
  %92 = getelementptr inbounds %struct.CBraState, ptr %91, i32 0, i32 9
  %93 = getelementptr inbounds [16384 x i8], ptr %92, i64 0, i64 0
  %94 = load ptr, ptr %18, align 8
  %95 = getelementptr inbounds %struct.CBraState, ptr %94, i32 0, i32 0
  %96 = load i64, ptr %95, align 8
  %97 = getelementptr inbounds i8, ptr %93, i64 %96
  %98 = load ptr, ptr %18, align 8
  %99 = getelementptr inbounds %struct.CBraState, ptr %98, i32 0, i32 2
  %100 = load i64, ptr %99, align 8
  call void @llvm.memmove.p0.p0.i64(ptr align 4 %90, ptr align 1 %97, i64 %100, i1 false)
  %101 = load ptr, ptr %18, align 8
  %102 = getelementptr inbounds %struct.CBraState, ptr %101, i32 0, i32 0
  store i64 0, ptr %102, align 8
  %103 = load ptr, ptr %18, align 8
  %104 = getelementptr inbounds %struct.CBraState, ptr %103, i32 0, i32 1
  store i64 0, ptr %104, align 8
  %105 = load ptr, ptr %18, align 8
  %106 = getelementptr inbounds %struct.CBraState, ptr %105, i32 0, i32 2
  %107 = load i64, ptr %106, align 8
  %108 = sub i64 16384, %107
  store i64 %108, ptr %22, align 8
  %109 = load i64, ptr %22, align 8
  %110 = load i64, ptr %20, align 8
  %111 = icmp ugt i64 %109, %110
  br i1 %111, label %112, label %114

112:                                              ; preds = %80
  %113 = load i64, ptr %20, align 8
  store i64 %113, ptr %22, align 8
  br label %114

114:                                              ; preds = %112, %80
  %115 = load ptr, ptr %18, align 8
  %116 = getelementptr inbounds %struct.CBraState, ptr %115, i32 0, i32 9
  %117 = getelementptr inbounds [16384 x i8], ptr %116, i64 0, i64 0
  %118 = load ptr, ptr %18, align 8
  %119 = getelementptr inbounds %struct.CBraState, ptr %118, i32 0, i32 2
  %120 = load i64, ptr %119, align 8
  %121 = getelementptr inbounds i8, ptr %117, i64 %120
  %122 = load ptr, ptr %13, align 8
  %123 = load i64, ptr %22, align 8
  call void @llvm.memcpy.p0.p0.i64(ptr align 1 %121, ptr align 1 %122, i64 %123, i1 false)
  %124 = load i64, ptr %22, align 8
  %125 = load ptr, ptr %14, align 8
  %126 = load i64, ptr %125, align 8
  %127 = add i64 %126, %124
  store i64 %127, ptr %125, align 8
  %128 = load i64, ptr %22, align 8
  %129 = load ptr, ptr %13, align 8
  %130 = getelementptr inbounds i8, ptr %129, i64 %128
  store ptr %130, ptr %13, align 8
  %131 = load i64, ptr %22, align 8
  %132 = load i64, ptr %20, align 8
  %133 = sub i64 %132, %131
  store i64 %133, ptr %20, align 8
  %134 = load i64, ptr %22, align 8
  %135 = load ptr, ptr %18, align 8
  %136 = getelementptr inbounds %struct.CBraState, ptr %135, i32 0, i32 2
  %137 = load i64, ptr %136, align 8
  %138 = add i64 %137, %134
  store i64 %138, ptr %136, align 8
  %139 = load ptr, ptr %18, align 8
  %140 = getelementptr inbounds %struct.CBraState, ptr %139, i32 0, i32 2
  %141 = load i64, ptr %140, align 8
  %142 = icmp eq i64 %141, 0
  br i1 %142, label %143, label %144

143:                                              ; preds = %114
  br label %308

144:                                              ; preds = %114
  %145 = load ptr, ptr %18, align 8
  %146 = getelementptr inbounds %struct.CBraState, ptr %145, i32 0, i32 3
  %147 = load i32, ptr %146, align 8
  switch i32 %147, label %283 [
    i32 3, label %148
    i32 4, label %185
    i32 5, label %203
    i32 6, label %219
    i32 7, label %235
    i32 8, label %251
    i32 9, label %267
  ]

148:                                              ; preds = %144
  %149 = load ptr, ptr %18, align 8
  %150 = getelementptr inbounds %struct.CBraState, ptr %149, i32 0, i32 4
  %151 = load i32, ptr %150, align 4
  %152 = icmp ne i32 %151, 0
  br i1 %152, label %153, label %166

153:                                              ; preds = %148
  %154 = load ptr, ptr %18, align 8
  %155 = getelementptr inbounds %struct.CBraState, ptr %154, i32 0, i32 8
  %156 = getelementptr inbounds [256 x i8], ptr %155, i64 0, i64 0
  %157 = load ptr, ptr %18, align 8
  %158 = getelementptr inbounds %struct.CBraState, ptr %157, i32 0, i32 5
  %159 = load i32, ptr %158, align 8
  %160 = load ptr, ptr %18, align 8
  %161 = getelementptr inbounds %struct.CBraState, ptr %160, i32 0, i32 9
  %162 = getelementptr inbounds [16384 x i8], ptr %161, i64 0, i64 0
  %163 = load ptr, ptr %18, align 8
  %164 = getelementptr inbounds %struct.CBraState, ptr %163, i32 0, i32 2
  %165 = load i64, ptr %164, align 8
  call void @Delta_Encode(ptr noundef %156, i32 noundef %159, ptr noundef %162, i64 noundef %165)
  br label %179

166:                                              ; preds = %148
  %167 = load ptr, ptr %18, align 8
  %168 = getelementptr inbounds %struct.CBraState, ptr %167, i32 0, i32 8
  %169 = getelementptr inbounds [256 x i8], ptr %168, i64 0, i64 0
  %170 = load ptr, ptr %18, align 8
  %171 = getelementptr inbounds %struct.CBraState, ptr %170, i32 0, i32 5
  %172 = load i32, ptr %171, align 8
  %173 = load ptr, ptr %18, align 8
  %174 = getelementptr inbounds %struct.CBraState, ptr %173, i32 0, i32 9
  %175 = getelementptr inbounds [16384 x i8], ptr %174, i64 0, i64 0
  %176 = load ptr, ptr %18, align 8
  %177 = getelementptr inbounds %struct.CBraState, ptr %176, i32 0, i32 2
  %178 = load i64, ptr %177, align 8
  call void @Delta_Decode(ptr noundef %169, i32 noundef %172, ptr noundef %175, i64 noundef %178)
  br label %179

179:                                              ; preds = %166, %153
  %180 = load ptr, ptr %18, align 8
  %181 = getelementptr inbounds %struct.CBraState, ptr %180, i32 0, i32 2
  %182 = load i64, ptr %181, align 8
  %183 = load ptr, ptr %18, align 8
  %184 = getelementptr inbounds %struct.CBraState, ptr %183, i32 0, i32 1
  store i64 %182, ptr %184, align 8
  br label %284

185:                                              ; preds = %144
  %186 = load ptr, ptr %18, align 8
  %187 = getelementptr inbounds %struct.CBraState, ptr %186, i32 0, i32 9
  %188 = getelementptr inbounds [16384 x i8], ptr %187, i64 0, i64 0
  %189 = load ptr, ptr %18, align 8
  %190 = getelementptr inbounds %struct.CBraState, ptr %189, i32 0, i32 2
  %191 = load i64, ptr %190, align 8
  %192 = load ptr, ptr %18, align 8
  %193 = getelementptr inbounds %struct.CBraState, ptr %192, i32 0, i32 6
  %194 = load i32, ptr %193, align 4
  %195 = load ptr, ptr %18, align 8
  %196 = getelementptr inbounds %struct.CBraState, ptr %195, i32 0, i32 7
  %197 = load ptr, ptr %18, align 8
  %198 = getelementptr inbounds %struct.CBraState, ptr %197, i32 0, i32 4
  %199 = load i32, ptr %198, align 4
  %200 = call i64 @x86_Convert(ptr noundef %188, i64 noundef %191, i32 noundef %194, ptr noundef %196, i32 noundef %199)
  %201 = load ptr, ptr %18, align 8
  %202 = getelementptr inbounds %struct.CBraState, ptr %201, i32 0, i32 1
  store i64 %200, ptr %202, align 8
  br label %284

203:                                              ; preds = %144
  %204 = load ptr, ptr %18, align 8
  %205 = getelementptr inbounds %struct.CBraState, ptr %204, i32 0, i32 9
  %206 = getelementptr inbounds [16384 x i8], ptr %205, i64 0, i64 0
  %207 = load ptr, ptr %18, align 8
  %208 = getelementptr inbounds %struct.CBraState, ptr %207, i32 0, i32 2
  %209 = load i64, ptr %208, align 8
  %210 = load ptr, ptr %18, align 8
  %211 = getelementptr inbounds %struct.CBraState, ptr %210, i32 0, i32 6
  %212 = load i32, ptr %211, align 4
  %213 = load ptr, ptr %18, align 8
  %214 = getelementptr inbounds %struct.CBraState, ptr %213, i32 0, i32 4
  %215 = load i32, ptr %214, align 4
  %216 = call i64 @PPC_Convert(ptr noundef %206, i64 noundef %209, i32 noundef %212, i32 noundef %215)
  %217 = load ptr, ptr %18, align 8
  %218 = getelementptr inbounds %struct.CBraState, ptr %217, i32 0, i32 1
  store i64 %216, ptr %218, align 8
  br label %284

219:                                              ; preds = %144
  %220 = load ptr, ptr %18, align 8
  %221 = getelementptr inbounds %struct.CBraState, ptr %220, i32 0, i32 9
  %222 = getelementptr inbounds [16384 x i8], ptr %221, i64 0, i64 0
  %223 = load ptr, ptr %18, align 8
  %224 = getelementptr inbounds %struct.CBraState, ptr %223, i32 0, i32 2
  %225 = load i64, ptr %224, align 8
  %226 = load ptr, ptr %18, align 8
  %227 = getelementptr inbounds %struct.CBraState, ptr %226, i32 0, i32 6
  %228 = load i32, ptr %227, align 4
  %229 = load ptr, ptr %18, align 8
  %230 = getelementptr inbounds %struct.CBraState, ptr %229, i32 0, i32 4
  %231 = load i32, ptr %230, align 4
  %232 = call i64 @IA64_Convert(ptr noundef %222, i64 noundef %225, i32 noundef %228, i32 noundef %231)
  %233 = load ptr, ptr %18, align 8
  %234 = getelementptr inbounds %struct.CBraState, ptr %233, i32 0, i32 1
  store i64 %232, ptr %234, align 8
  br label %284

235:                                              ; preds = %144
  %236 = load ptr, ptr %18, align 8
  %237 = getelementptr inbounds %struct.CBraState, ptr %236, i32 0, i32 9
  %238 = getelementptr inbounds [16384 x i8], ptr %237, i64 0, i64 0
  %239 = load ptr, ptr %18, align 8
  %240 = getelementptr inbounds %struct.CBraState, ptr %239, i32 0, i32 2
  %241 = load i64, ptr %240, align 8
  %242 = load ptr, ptr %18, align 8
  %243 = getelementptr inbounds %struct.CBraState, ptr %242, i32 0, i32 6
  %244 = load i32, ptr %243, align 4
  %245 = load ptr, ptr %18, align 8
  %246 = getelementptr inbounds %struct.CBraState, ptr %245, i32 0, i32 4
  %247 = load i32, ptr %246, align 4
  %248 = call i64 @ARM_Convert(ptr noundef %238, i64 noundef %241, i32 noundef %244, i32 noundef %247)
  %249 = load ptr, ptr %18, align 8
  %250 = getelementptr inbounds %struct.CBraState, ptr %249, i32 0, i32 1
  store i64 %248, ptr %250, align 8
  br label %284

251:                                              ; preds = %144
  %252 = load ptr, ptr %18, align 8
  %253 = getelementptr inbounds %struct.CBraState, ptr %252, i32 0, i32 9
  %254 = getelementptr inbounds [16384 x i8], ptr %253, i64 0, i64 0
  %255 = load ptr, ptr %18, align 8
  %256 = getelementptr inbounds %struct.CBraState, ptr %255, i32 0, i32 2
  %257 = load i64, ptr %256, align 8
  %258 = load ptr, ptr %18, align 8
  %259 = getelementptr inbounds %struct.CBraState, ptr %258, i32 0, i32 6
  %260 = load i32, ptr %259, align 4
  %261 = load ptr, ptr %18, align 8
  %262 = getelementptr inbounds %struct.CBraState, ptr %261, i32 0, i32 4
  %263 = load i32, ptr %262, align 4
  %264 = call i64 @ARMT_Convert(ptr noundef %254, i64 noundef %257, i32 noundef %260, i32 noundef %263)
  %265 = load ptr, ptr %18, align 8
  %266 = getelementptr inbounds %struct.CBraState, ptr %265, i32 0, i32 1
  store i64 %264, ptr %266, align 8
  br label %284

267:                                              ; preds = %144
  %268 = load ptr, ptr %18, align 8
  %269 = getelementptr inbounds %struct.CBraState, ptr %268, i32 0, i32 9
  %270 = getelementptr inbounds [16384 x i8], ptr %269, i64 0, i64 0
  %271 = load ptr, ptr %18, align 8
  %272 = getelementptr inbounds %struct.CBraState, ptr %271, i32 0, i32 2
  %273 = load i64, ptr %272, align 8
  %274 = load ptr, ptr %18, align 8
  %275 = getelementptr inbounds %struct.CBraState, ptr %274, i32 0, i32 6
  %276 = load i32, ptr %275, align 4
  %277 = load ptr, ptr %18, align 8
  %278 = getelementptr inbounds %struct.CBraState, ptr %277, i32 0, i32 4
  %279 = load i32, ptr %278, align 4
  %280 = call i64 @SPARC_Convert(ptr noundef %270, i64 noundef %273, i32 noundef %276, i32 noundef %279)
  %281 = load ptr, ptr %18, align 8
  %282 = getelementptr inbounds %struct.CBraState, ptr %281, i32 0, i32 1
  store i64 %280, ptr %282, align 8
  br label %284

283:                                              ; preds = %144
  store i32 4, ptr %9, align 4
  br label %325

284:                                              ; preds = %267, %251, %235, %219, %203, %185, %179
  %285 = load ptr, ptr %18, align 8
  %286 = getelementptr inbounds %struct.CBraState, ptr %285, i32 0, i32 1
  %287 = load i64, ptr %286, align 8
  %288 = trunc i64 %287 to i32
  %289 = load ptr, ptr %18, align 8
  %290 = getelementptr inbounds %struct.CBraState, ptr %289, i32 0, i32 6
  %291 = load i32, ptr %290, align 4
  %292 = add i32 %291, %288
  store i32 %292, ptr %290, align 4
  %293 = load ptr, ptr %18, align 8
  %294 = getelementptr inbounds %struct.CBraState, ptr %293, i32 0, i32 1
  %295 = load i64, ptr %294, align 8
  %296 = icmp eq i64 %295, 0
  br i1 %296, label %297, label %307

297:                                              ; preds = %284
  %298 = load i32, ptr %15, align 4
  %299 = icmp ne i32 %298, 0
  br i1 %299, label %301, label %300

300:                                              ; preds = %297
  br label %308

301:                                              ; preds = %297
  %302 = load ptr, ptr %18, align 8
  %303 = getelementptr inbounds %struct.CBraState, ptr %302, i32 0, i32 2
  %304 = load i64, ptr %303, align 8
  %305 = load ptr, ptr %18, align 8
  %306 = getelementptr inbounds %struct.CBraState, ptr %305, i32 0, i32 1
  store i64 %304, ptr %306, align 8
  br label %307

307:                                              ; preds = %301, %284
  br label %31

308:                                              ; preds = %300, %143, %31
  %309 = load ptr, ptr %18, align 8
  %310 = getelementptr inbounds %struct.CBraState, ptr %309, i32 0, i32 2
  %311 = load i64, ptr %310, align 8
  %312 = load ptr, ptr %18, align 8
  %313 = getelementptr inbounds %struct.CBraState, ptr %312, i32 0, i32 0
  %314 = load i64, ptr %313, align 8
  %315 = icmp eq i64 %311, %314
  br i1 %315, label %316, label %324

316:                                              ; preds = %308
  %317 = load i64, ptr %20, align 8
  %318 = icmp eq i64 %317, 0
  br i1 %318, label %319, label %324

319:                                              ; preds = %316
  %320 = load i32, ptr %15, align 4
  %321 = icmp ne i32 %320, 0
  br i1 %321, label %322, label %324

322:                                              ; preds = %319
  %323 = load ptr, ptr %17, align 8
  store i32 1, ptr %323, align 4
  br label %324

324:                                              ; preds = %322, %319, %316, %308
  store i32 0, ptr %9, align 4
  br label %325

325:                                              ; preds = %324, %283
  %326 = load i32, ptr %9, align 4
  ret i32 %326
}