; Function Attrs: nounwind uwtable
define internal range(i32 0, 5) i32 @BraState_Code(ptr noundef %0, ptr noundef writeonly captures(none) %1, ptr noundef captures(none) %2, ptr noundef readonly captures(none) %3, ptr noundef captures(none) %4, i32 noundef %5, i32 %6, ptr noundef writeonly captures(none) initializes((0, 4)) %7) #1 {
  %9 = load i64, ptr %2, align 8
  %10 = load i64, ptr %4, align 8
  store i64 0, ptr %2, align 8
  store i64 0, ptr %4, align 8
  store i32 0, ptr %7, align 4
  %.not133137 = icmp eq i64 %9, 0
  br i1 %.not133137, label %.loopexit124, label %.lr.ph.lr.ph

.lr.ph.lr.ph:                                     ; preds = %8
  %11 = getelementptr inbounds nuw i8, ptr %0, i64 8
  %12 = getelementptr inbounds nuw i8, ptr %0, i64 300
  %13 = getelementptr inbounds nuw i8, ptr %0, i64 16
  %14 = getelementptr inbounds nuw i8, ptr %0, i64 24
  %15 = getelementptr inbounds nuw i8, ptr %0, i64 36
  %16 = getelementptr inbounds nuw i8, ptr %0, i64 28
  %17 = getelementptr inbounds nuw i8, ptr %0, i64 40
  %18 = getelementptr inbounds nuw i8, ptr %0, i64 44
  %19 = getelementptr inbounds nuw i8, ptr %0, i64 32
  %.not122 = icmp eq i32 %5, 0
  br label %.lr.ph

.lr.ph:                                           ; preds = %.lr.ph.backedge, %.lr.ph.lr.ph
  %.0109.ph141 = phi i64 [ %10, %.lr.ph.lr.ph ], [ %41, %.lr.ph.backedge ]
  %.0110.ph140 = phi i64 [ %9, %.lr.ph.lr.ph ], [ %.0110135, %.lr.ph.backedge ]
  %.0112.ph139 = phi ptr [ %1, %.lr.ph.lr.ph ], [ %.0112134, %.lr.ph.backedge ]
  %.0113.ph138 = phi ptr [ %3, %.lr.ph.lr.ph ], [ %40, %.lr.ph.backedge ]
  br label %20

20:                                               ; preds = %.lr.ph, %23
  %.0110135 = phi i64 [ %.0110.ph140, %.lr.ph ], [ %31, %23 ]
  %.0112134 = phi ptr [ %.0112.ph139, %.lr.ph ], [ %30, %23 ]
  %21 = load i64, ptr %0, align 8
  %22 = load i64, ptr %11, align 8
  %.not120 = icmp eq i64 %21, %22
  br i1 %.not120, label %32, label %23

23:                                               ; preds = %20
  %24 = sub i64 %22, %21
  %spec.select = tail call i64 @llvm.umin.i64(i64 %24, i64 %.0110135)
  %25 = getelementptr inbounds i8, ptr %12, i64 %21
  tail call void @llvm.memcpy.p0.p0.i64(ptr align 1 %.0112134, ptr nonnull align 1 %25, i64 %spec.select, i1 false)
  %26 = load i64, ptr %0, align 8
  %27 = add i64 %26, %spec.select
  store i64 %27, ptr %0, align 8
  %28 = load i64, ptr %2, align 8
  %29 = add i64 %28, %spec.select
  store i64 %29, ptr %2, align 8
  %30 = getelementptr inbounds i8, ptr %.0112134, i64 %spec.select
  %31 = sub i64 %.0110135, %spec.select
  %.not = icmp eq i64 %31, 0
  br i1 %.not, label %.loopexit124, label %20

32:                                               ; preds = %20
  %33 = load i64, ptr %13, align 8
  %34 = sub i64 %33, %21
  store i64 %34, ptr %13, align 8
  %35 = getelementptr inbounds i8, ptr %12, i64 %21
  tail call void @llvm.memmove.p0.p0.i64(ptr nonnull align 4 %12, ptr nonnull align 1 %35, i64 %34, i1 false)
  %36 = sub i64 16384, %34
  %spec.select123 = tail call i64 @llvm.umin.i64(i64 %36, i64 %.0109.ph141)
  %37 = getelementptr inbounds i8, ptr %12, i64 %34
  tail call void @llvm.memset.p0.i64(ptr noundef nonnull align 8 dereferenceable(16) %0, i8 0, i64 16, i1 false)
  tail call void @llvm.memcpy.p0.p0.i64(ptr nonnull align 1 %37, ptr align 1 %.0113.ph138, i64 %spec.select123, i1 false)
  %38 = load i64, ptr %4, align 8
  %39 = add i64 %38, %spec.select123
  store i64 %39, ptr %4, align 8
  %40 = getelementptr inbounds i8, ptr %.0113.ph138, i64 %spec.select123
  %41 = sub i64 %.0109.ph141, %spec.select123
  %42 = load i64, ptr %13, align 8
  %43 = add i64 %42, %spec.select123
  store i64 %43, ptr %13, align 8
  %44 = icmp eq i64 %43, 0
  br i1 %44, label %.loopexit124, label %45

45:                                               ; preds = %32
  %46 = load i32, ptr %14, align 8
  switch i32 %46, label %.loopexit [
    i32 3, label %47
    i32 4, label %54
    i32 5, label %58
    i32 6, label %62
    i32 7, label %66
    i32 8, label %70
    i32 9, label %74
  ]

47:                                               ; preds = %45
  %48 = load i32, ptr %16, align 4
  %.not121 = icmp eq i32 %48, 0
  %49 = load i32, ptr %19, align 8
  br i1 %.not121, label %51, label %50

50:                                               ; preds = %47
  tail call void @Delta_Encode(ptr noundef nonnull %18, i32 noundef %49, ptr noundef nonnull %12, i64 noundef %43) #10
  br label %52

51:                                               ; preds = %47
  tail call void @Delta_Decode(ptr noundef nonnull %18, i32 noundef %49, ptr noundef nonnull %12, i64 noundef %43) #10
  br label %52

52:                                               ; preds = %51, %50
  %53 = load i64, ptr %13, align 8
  br label %78

54:                                               ; preds = %45
  %55 = load i32, ptr %15, align 4
  %56 = load i32, ptr %16, align 4
  %57 = tail call i64 @x86_Convert(ptr noundef nonnull %12, i64 noundef %43, i32 noundef %55, ptr noundef nonnull %17, i32 noundef %56) #10
  br label %78

58:                                               ; preds = %45
  %59 = load i32, ptr %15, align 4
  %60 = load i32, ptr %16, align 4
  %61 = tail call i64 @PPC_Convert(ptr noundef nonnull %12, i64 noundef %43, i32 noundef %59, i32 noundef %60) #10
  br label %78

62:                                               ; preds = %45
  %63 = load i32, ptr %15, align 4
  %64 = load i32, ptr %16, align 4
  %65 = tail call i64 @IA64_Convert(ptr noundef nonnull %12, i64 noundef %43, i32 noundef %63, i32 noundef %64) #10
  br label %78

66:                                               ; preds = %45
  %67 = load i32, ptr %15, align 4
  %68 = load i32, ptr %16, align 4
  %69 = tail call i64 @ARM_Convert(ptr noundef nonnull %12, i64 noundef %43, i32 noundef %67, i32 noundef %68) #10
  br label %78

70:                                               ; preds = %45
  %71 = load i32, ptr %15, align 4
  %72 = load i32, ptr %16, align 4
  %73 = tail call i64 @ARMT_Convert(ptr noundef nonnull %12, i64 noundef %43, i32 noundef %71, i32 noundef %72) #10
  br label %78

74:                                               ; preds = %45
  %75 = load i32, ptr %15, align 4
  %76 = load i32, ptr %16, align 4
  %77 = tail call i64 @SPARC_Convert(ptr noundef nonnull %12, i64 noundef %43, i32 noundef %75, i32 noundef %76) #10
  br label %78

78:                                               ; preds = %74, %70, %66, %62, %58, %54, %52
  %.sink = phi i64 [ %77, %74 ], [ %73, %70 ], [ %69, %66 ], [ %65, %62 ], [ %61, %58 ], [ %57, %54 ], [ %53, %52 ]
  store i64 %.sink, ptr %11, align 8
  %79 = trunc i64 %.sink to i32
  %80 = load i32, ptr %15, align 4
  %81 = add i32 %80, %79
  store i32 %81, ptr %15, align 4
  %82 = icmp eq i64 %.sink, 0
  br i1 %82, label %83, label %.lr.ph.backedge

83:                                               ; preds = %78
  br i1 %.not122, label %.loopexit124, label %84

84:                                               ; preds = %83
  %85 = load i64, ptr %13, align 8
  store i64 %85, ptr %11, align 8
  br label %.lr.ph.backedge

.lr.ph.backedge:                                  ; preds = %84, %78
  br label %.lr.ph

.loopexit124:                                     ; preds = %83, %32, %23, %8
  %.1 = phi i64 [ %10, %8 ], [ %.0109.ph141, %23 ], [ %41, %32 ], [ %41, %83 ]
  %86 = getelementptr inbounds nuw i8, ptr %0, i64 16
  %87 = load i64, ptr %86, align 8
  %88 = load i64, ptr %0, align 8
  %89 = icmp eq i64 %87, %88
  %90 = icmp eq i64 %.1, 0
  %or.cond = select i1 %89, i1 %90, i1 false
  %91 = icmp ne i32 %5, 0
  %or.cond3 = and i1 %91, %or.cond
  br i1 %or.cond3, label %92, label %.loopexit

92:                                               ; preds = %.loopexit124
  store i32 1, ptr %7, align 4
  br label %.loopexit

.loopexit:                                        ; preds = %45, %.loopexit124, %92
  %.0111 = phi i32 [ 0, %92 ], [ 0, %.loopexit124 ], [ 4, %45 ]
  ret i32 %.0111
}